target datalayout = "e-m:e-p270:32:32-p271:32:32-p272:64:64-i64:64-i128:128-f80:128-n8:16:32:64-S128"
target triple = "x86_64-pc-linux-gnu"

%struct.jpeg_compress_struct = type { ptr, ptr, ptr, ptr, i32, i32, ptr, i32, i32, i32, i32, double, i32, i32, i32, ptr, [4 x ptr], [4 x ptr], [4 x ptr], [16 x i8], [16 x i8], [16 x i8], i32, ptr, i32, i32, i32, i32, i32, i32, i32, i32, i32, i8, i8, i8, i16, i16, i32, i32, i32, i32, i32, i32, i32, [4 x ptr], i32, i32, i32, [10 x i32], i32, i32, i32, i32, ptr, ptr, ptr, ptr, ptr, ptr, ptr, ptr, ptr, ptr, i32 }
%struct.jpeg_comp_master = type { ptr, ptr, ptr, i32, i32, i32 }
%struct.jpeg_component_info = type { i32, i32, i32, i32, i32, i32, i32, i32, i32, i32, i32, i32, i32, i32, i32, i32, i32, i32, i32, ptr, ptr }
%struct.jpeg_error_mgr = type { ptr, ptr, ptr, ptr, ptr, i32, %union.anon, i32, i64, ptr, i32, ptr, i32, i32 }
%union.anon = type { [8 x i32], [48 x i8] }

; Function Attrs: nounwind uwtable
define internal void @write_frame_header(ptr noundef %0) #0 {
  %2 = alloca ptr, align 8
  %3 = alloca i32, align 4
  %4 = alloca i32, align 4
  %5 = alloca i32, align 4
  %6 = alloca ptr, align 8
  store ptr %0, ptr %2, align 8, !tbaa !3
  call void @llvm.lifetime.start.p0(i64 4, ptr %3) #2
  call void @llvm.lifetime.start.p0(i64 4, ptr %4) #2
  store i32 0, ptr %4, align 4, !tbaa !43
  call void @llvm.lifetime.start.p0(i64 4, ptr %5) #2
  call void @llvm.lifetime.start.p0(i64 8, ptr %6) #2
  %7 = load ptr, ptr %2, align 8, !tbaa !3
  %8 = getelementptr inbounds nuw %struct.jpeg_compress_struct, ptr %7, i32 0, i32 54
  %9 = load ptr, ptr %8, align 8, !tbaa !44
  %10 = getelementptr inbounds nuw %struct.jpeg_comp_master, ptr %9, i32 0, i32 5
  %11 = load i32, ptr %10, align 8, !tbaa !45
  %12 = icmp ne i32 %11, 0
  br i1 %12, label %37, label %13

13:                                               ; preds = %1
  store i32 0, ptr %3, align 4, !tbaa !43
  %14 = load ptr, ptr %2, align 8, !tbaa !3
  %15 = getelementptr inbounds nuw %struct.jpeg_compress_struct, ptr %14, i32 0, i32 15
  %16 = load ptr, ptr %15, align 8, !tbaa !47
  store ptr %16, ptr %6, align 8, !tbaa !29
  br label %17

17:                                               ; preds = %31, %13
  %18 = load i32, ptr %3, align 4, !tbaa !43
  %19 = load ptr, ptr %2, align 8, !tbaa !3
  %20 = getelementptr inbounds nuw %struct.jpeg_compress_struct, ptr %19, i32 0, i32 13
  %21 = load i32, ptr %20, align 4, !tbaa !48
  %22 = icmp slt i32 %18, %21
  br i1 %22, label %23, label %36

23:                                               ; preds = %17
  %24 = load ptr, ptr %2, align 8, !tbaa !3
  %25 = load ptr, ptr %6, align 8, !tbaa !29
  %26 = getelementptr inbounds nuw %struct.jpeg_component_info, ptr %25, i32 0, i32 4
  %27 = load i32, ptr %26, align 8, !tbaa !49
  %28 = call i32 @emit_dqt(ptr noundef %24, i32 noundef %27)
  %29 = load i32, ptr %4, align 4, !tbaa !43
  %30 = add nsw i32 %29, %28
  store i32 %30, ptr %4, align 4, !tbaa !43
  br label %31

31:                                               ; preds = %23
  %32 = load i32, ptr %3, align 4, !tbaa !43
  %33 = add nsw i32 %32, 1
  store i32 %33, ptr %3, align 4, !tbaa !43
  %34 = load ptr, ptr %6, align 8, !tbaa !29
  %35 = getelementptr inbounds nuw %struct.jpeg_component_info, ptr %34, i32 1
  store ptr %35, ptr %6, align 8, !tbaa !29
  br label %17, !llvm.loop !51

36:                                               ; preds = %17
  br label %37

37:                                               ; preds = %36, %1
  %38 = load ptr, ptr %2, align 8, !tbaa !3
  %39 = getelementptr inbounds nuw %struct.jpeg_compress_struct, ptr %38, i32 0, i32 25
  %40 = load i32, ptr %39, align 4, !tbaa !53
  %41 = icmp ne i32 %40, 0
  br i1 %41, label %59, label %42

42:                                               ; preds = %37
  %43 = load ptr, ptr %2, align 8, !tbaa !3
  %44 = getelementptr inbounds nuw %struct.jpeg_compress_struct, ptr %43, i32 0, i32 40
  %45 = load i32, ptr %44, align 4, !tbaa !54
  %46 = icmp ne i32 %45, 0
  br i1 %46, label %59, label %47

47:                                               ; preds = %42
  %48 = load ptr, ptr %2, align 8, !tbaa !3
  %49 = getelementptr inbounds nuw %struct.jpeg_compress_struct, ptr %48, i32 0, i32 54
  %50 = load ptr, ptr %49, align 8, !tbaa !44
  %51 = getelementptr inbounds nuw %struct.jpeg_comp_master, ptr %50, i32 0, i32 5
  %52 = load i32, ptr %51, align 8, !tbaa !45
  %53 = icmp ne i32 %52, 0
  br i1 %53, label %59, label %54

54:                                               ; preds = %47
  %55 = load ptr, ptr %2, align 8, !tbaa !3
  %56 = getelementptr inbounds nuw %struct.jpeg_compress_struct, ptr %55, i32 0, i32 12
  %57 = load i32, ptr %56, align 8, !tbaa !55
  %58 = icmp ne i32 %57, 8
  br i1 %58, label %59, label %60

59:                                               ; preds = %54, %47, %42, %37
  store i32 0, ptr %5, align 4, !tbaa !43
  br label %105

60:                                               ; preds = %54
  store i32 1, ptr %5, align 4, !tbaa !43
  store i32 0, ptr %3, align 4, !tbaa !43
  %61 = load ptr, ptr %2, align 8, !tbaa !3
  %62 = getelementptr inbounds nuw %struct.jpeg_compress_struct, ptr %61, i32 0, i32 15
  %63 = load ptr, ptr %62, align 8, !tbaa !47
  store ptr %63, ptr %6, align 8, !tbaa !29
  br label %64

64:                                               ; preds = %82, %60
  %65 = load i32, ptr %3, align 4, !tbaa !43
  %66 = load ptr, ptr %2, align 8, !tbaa !3
  %67 = getelementptr inbounds nuw %struct.jpeg_compress_struct, ptr %66, i32 0, i32 13
  %68 = load i32, ptr %67, align 4, !tbaa !48
  %69 = icmp slt i32 %65, %68
  br i1 %69, label %70, label %87

70:                                               ; preds = %64
  %71 = load ptr, ptr %6, align 8, !tbaa !29
  %72 = getelementptr inbounds nuw %struct.jpeg_component_info, ptr %71, i32 0, i32 5
  %73 = load i32, ptr %72, align 4, !tbaa !56
  %74 = icmp sgt i32 %73, 1
  br i1 %74, label %80, label %75

75:                                               ; preds = %70
  %76 = load ptr, ptr %6, align 8, !tbaa !29
  %77 = getelementptr inbounds nuw %struct.jpeg_component_info, ptr %76, i32 0, i32 6
  %78 = load i32, ptr %77, align 8, !tbaa !57
  %79 = icmp sgt i32 %78, 1
  br i1 %79, label %80, label %81

80:                                               ; preds = %75, %70
  store i32 0, ptr %5, align 4, !tbaa !43
  br label %81

81:                                               ; preds = %80, %75
  br label %82

82:                                               ; preds = %81
  %83 = load i32, ptr %3, align 4, !tbaa !43
  %84 = add nsw i32 %83, 1
  store i32 %84, ptr %3, align 4, !tbaa !43
  %85 = load ptr, ptr %6, align 8, !tbaa !29
  %86 = getelementptr inbounds nuw %struct.jpeg_component_info, ptr %85, i32 1
  store ptr %86, ptr %6, align 8, !tbaa !29
  br label %64, !llvm.loop !58

87:                                               ; preds = %64
  %88 = load i32, ptr %4, align 4, !tbaa !43
  %89 = icmp ne i32 %88, 0
  br i1 %89, label %90, label %104

90:                                               ; preds = %87
  %91 = load i32, ptr %5, align 4, !tbaa !43
  %92 = icmp ne i32 %91, 0
  br i1 %92, label %93, label %104

93:                                               ; preds = %90
  store i32 0, ptr %5, align 4, !tbaa !43
  %94 = load ptr, ptr %2, align 8, !tbaa !3
  %95 = getelementptr inbounds nuw %struct.jpeg_compress_struct, ptr %94, i32 0, i32 0
  %96 = load ptr, ptr %95, align 8, !tbaa !59
  %97 = getelementptr inbounds nuw %struct.jpeg_error_mgr, ptr %96, i32 0, i32 5
  store i32 75, ptr %97, align 8, !tbaa !60
  %98 = load ptr, ptr %2, align 8, !tbaa !3
  %99 = getelementptr inbounds nuw %struct.jpeg_compress_struct, ptr %98, i32 0, i32 0
  %100 = load ptr, ptr %99, align 8, !tbaa !59
  %101 = getelementptr inbounds nuw %struct.jpeg_error_mgr, ptr %100, i32 0, i32 1
  %102 = load ptr, ptr %101, align 8, !tbaa !63
  %103 = load ptr, ptr %2, align 8, !tbaa !3
  call void %102(ptr noundef %103, i32 noundef 0)
  br label %104

104:                                              ; preds = %93, %90, %87
  br label %105

105:                                              ; preds = %104, %59
  %106 = load ptr, ptr %2, align 8, !tbaa !3
  %107 = getelementptr inbounds nuw %struct.jpeg_compress_struct, ptr %106, i32 0, i32 25
  %108 = load i32, ptr %107, align 4, !tbaa !53
  %109 = icmp ne i32 %108, 0
  br i1 %109, label %110, label %120

110:                                              ; preds = %105
  %111 = load ptr, ptr %2, align 8, !tbaa !3
  %112 = getelementptr inbounds nuw %struct.jpeg_compress_struct, ptr %111, i32 0, i32 40
  %113 = load i32, ptr %112, align 4, !tbaa !54
  %114 = icmp ne i32 %113, 0
  br i1 %114, label %115, label %117

115:                                              ; preds = %110
  %116 = load ptr, ptr %2, align 8, !tbaa !3
  call void @emit_sof(ptr noundef %116, i32 noundef 202)
  br label %119

117:                                              ; preds = %110
  %118 = load ptr, ptr %2, align 8, !tbaa !3
  call void @emit_sof(ptr noundef %118, i32 noundef 201)
  br label %119

119:                                              ; preds = %117, %115
  br label %146

120:                                              ; preds = %105
  %121 = load ptr, ptr %2, align 8, !tbaa !3
  %122 = getelementptr inbounds nuw %struct.jpeg_compress_struct, ptr %121, i32 0, i32 40
  %123 = load i32, ptr %122, align 4, !tbaa !54
  %124 = icmp ne i32 %123, 0
  br i1 %124, label %125, label %127

125:                                              ; preds = %120
  %126 = load ptr, ptr %2, align 8, !tbaa !3
  call void @emit_sof(ptr noundef %126, i32 noundef 194)
  br label %145

127:                                              ; preds = %120
  %128 = load ptr, ptr %2, align 8, !tbaa !3
  %129 = getelementptr inbounds nuw %struct.jpeg_compress_struct, ptr %128, i32 0, i32 54
  %130 = load ptr, ptr %129, align 8, !tbaa !44
  %131 = getelementptr inbounds nuw %struct.jpeg_comp_master, ptr %130, i32 0, i32 5
  %132 = load i32, ptr %131, align 8, !tbaa !45
  %133 = icmp ne i32 %132, 0
  br i1 %133, label %134, label %136

134:                                              ; preds = %127
  %135 = load ptr, ptr %2, align 8, !tbaa !3
  call void @emit_sof(ptr noundef %135, i32 noundef 195)
  br label %144

136:                                              ; preds = %127
  %137 = load i32, ptr %5, align 4, !tbaa !43
  %138 = icmp ne i32 %137, 0
  br i1 %138, label %139, label %141

139:                                              ; preds = %136
  %140 = load ptr, ptr %2, align 8, !tbaa !3
  call void @emit_sof(ptr noundef %140, i32 noundef 192)
  br label %143

141:                                              ; preds = %136
  %142 = load ptr, ptr %2, align 8, !tbaa !3
  call void @emit_sof(ptr noundef %142, i32 noundef 193)
  br label %143

143:                                              ; preds = %141, %139
  br label %144

144:                                              ; preds = %143, %134
  br label %145

145:                                              ; preds = %144, %125
  br label %146

146:                                              ; preds = %145, %119
  call void @llvm.lifetime.end.p0(i64 8, ptr %6) #2
  call void @llvm.lifetime.end.p0(i64 4, ptr %5) #2
  call void @llvm.lifetime.end.p0(i64 4, ptr %4) #2
  call void @llvm.lifetime.end.p0(i64 4, ptr %3) #2
  ret void
}