; Function Attrs: nounwind uwtable
define internal void @write_frame_header(ptr noundef %0) #0 {
  %2 = getelementptr inbounds nuw i8, ptr %0, i64 432
  %3 = load ptr, ptr %2, align 8, !tbaa !58
  %4 = getelementptr inbounds nuw i8, ptr %3, i64 32
  %5 = load i32, ptr %4, align 8, !tbaa !59
  %.not = icmp eq i32 %5, 0
  br i1 %.not, label %6, label %.loopexit

6:                                                ; preds = %1
  %7 = getelementptr inbounds nuw i8, ptr %0, i64 76
  %8 = load i32, ptr %7, align 4, !tbaa !61
  %9 = icmp sgt i32 %8, 0
  br i1 %9, label %.lr.ph.preheader, label %.loopexit

.lr.ph.preheader:                                 ; preds = %6
  %10 = getelementptr inbounds nuw i8, ptr %0, i64 88
  %11 = load ptr, ptr %10, align 8, !tbaa !62
  br label %.lr.ph

.lr.ph:                                           ; preds = %.lr.ph.preheader, %.lr.ph
  %.055 = phi ptr [ %17, %.lr.ph ], [ %11, %.lr.ph.preheader ]
  %.13954 = phi i32 [ %15, %.lr.ph ], [ 0, %.lr.ph.preheader ]
  %.04053 = phi i32 [ %16, %.lr.ph ], [ 0, %.lr.ph.preheader ]
  %12 = getelementptr inbounds nuw i8, ptr %.055, i64 16
  %13 = load i32, ptr %12, align 8, !tbaa !63
  %14 = tail call fastcc i32 @emit_dqt(ptr noundef nonnull %0, i32 noundef %13)
  %15 = add nuw nsw i32 %14, %.13954
  %16 = add nuw nsw i32 %.04053, 1
  %17 = getelementptr inbounds nuw i8, ptr %.055, i64 96
  %18 = load i32, ptr %7, align 4, !tbaa !61
  %19 = icmp slt i32 %16, %18
  br i1 %19, label %.lr.ph, label %.loopexit.loopexit, !llvm.loop !65

.loopexit.loopexit:                               ; preds = %.lr.ph
  %20 = icmp ne i32 %15, 0
  br label %.loopexit

.loopexit:                                        ; preds = %.loopexit.loopexit, %6, %1
  %.038 = phi i1 [ false, %1 ], [ false, %6 ], [ %20, %.loopexit.loopexit ]
  %21 = getelementptr inbounds nuw i8, ptr %0, i64 260
  %22 = load i32, ptr %21, align 4, !tbaa !67
  %.not42 = icmp eq i32 %22, 0
  br i1 %.not42, label %23, label %.thread

23:                                               ; preds = %.loopexit
  %24 = getelementptr inbounds nuw i8, ptr %0, i64 308
  %25 = load i32, ptr %24, align 4, !tbaa !68
  %.not43 = icmp eq i32 %25, 0
  br i1 %.not43, label %26, label %.thread62.thread

26:                                               ; preds = %23
  %27 = load ptr, ptr %2, align 8, !tbaa !58
  %28 = getelementptr inbounds nuw i8, ptr %27, i64 32
  %29 = load i32, ptr %28, align 8, !tbaa !59
  %.not44 = icmp eq i32 %29, 0
  br i1 %.not44, label %30, label %.thread62

30:                                               ; preds = %26
  %31 = getelementptr inbounds nuw i8, ptr %0, i64 72
  %32 = load i32, ptr %31, align 8, !tbaa !69
  %.not45 = icmp eq i32 %32, 8
  br i1 %.not45, label %33, label %.thread62

33:                                               ; preds = %30
  %34 = getelementptr inbounds nuw i8, ptr %0, i64 76
  %35 = load i32, ptr %34, align 4, !tbaa !61
  %36 = icmp sgt i32 %35, 0
  br i1 %36, label %.lr.ph59.preheader, label %._crit_edge

.lr.ph59.preheader:                               ; preds = %33
  %37 = getelementptr inbounds nuw i8, ptr %0, i64 88
  %38 = load ptr, ptr %37, align 8, !tbaa !62
  br label %.lr.ph59

.lr.ph59:                                         ; preds = %.lr.ph59.preheader, %47
  %.158 = phi ptr [ %49, %47 ], [ %38, %.lr.ph59.preheader ]
  %.13757 = phi i32 [ %.2, %47 ], [ 1, %.lr.ph59.preheader ]
  %.14156 = phi i32 [ %48, %47 ], [ 0, %.lr.ph59.preheader ]
  %39 = getelementptr inbounds nuw i8, ptr %.158, i64 20
  %40 = load i32, ptr %39, align 4, !tbaa !70
  %41 = icmp sgt i32 %40, 1
  br i1 %41, label %46, label %42

42:                                               ; preds = %.lr.ph59
  %43 = getelementptr inbounds nuw i8, ptr %.158, i64 24
  %44 = load i32, ptr %43, align 8, !tbaa !71
  %45 = icmp sgt i32 %44, 1
  br i1 %45, label %46, label %47

46:                                               ; preds = %42, %.lr.ph59
  br label %47

47:                                               ; preds = %42, %46
  %.2 = phi i32 [ 0, %46 ], [ %.13757, %42 ]
  %48 = add nuw nsw i32 %.14156, 1
  %49 = getelementptr inbounds nuw i8, ptr %.158, i64 96
  %exitcond.not = icmp eq i32 %48, %35
  br i1 %exitcond.not, label %._crit_edge, label %.lr.ph59, !llvm.loop !72

._crit_edge:                                      ; preds = %47, %33
  %.137.lcssa = phi i32 [ 1, %33 ], [ %.2, %47 ]
  %50 = icmp ne i32 %.137.lcssa, 0
  %or.cond = select i1 %.038, i1 %50, i1 false
  br i1 %or.cond, label %51, label %.thread62

51:                                               ; preds = %._crit_edge
  %52 = load ptr, ptr %0, align 8, !tbaa !45
  %53 = getelementptr inbounds nuw i8, ptr %52, i64 40
  store i32 75, ptr %53, align 8, !tbaa !46
  %54 = getelementptr inbounds nuw i8, ptr %52, i64 8
  %55 = load ptr, ptr %54, align 8, !tbaa !73
  tail call void %55(ptr noundef nonnull %0, i32 noundef 0) #3
  %.pr.pre = load i32, ptr %21, align 4, !tbaa !67
  %56 = icmp eq i32 %.pr.pre, 0
  br i1 %56, label %.thread62, label %.thread

.thread:                                          ; preds = %.loopexit, %51
  %57 = getelementptr inbounds nuw i8, ptr %0, i64 308
  %58 = load i32, ptr %57, align 4, !tbaa !68
  %.not50 = icmp eq i32 %58, 0
  %. = select i1 %.not50, i32 201, i32 202
  br label %.thread62.thread

.thread62:                                        ; preds = %._crit_edge, %30, %26, %51
  %.036.ph65.ph = phi i32 [ 0, %26 ], [ 0, %30 ], [ %.137.lcssa, %._crit_edge ], [ 0, %51 ]
  %.pr = load i32, ptr %24, align 4, !tbaa !68
  %.not47 = icmp eq i32 %.pr, 0
  br i1 %.not47, label %59, label %.thread62.thread

59:                                               ; preds = %.thread62
  %60 = load ptr, ptr %2, align 8, !tbaa !58
  %61 = getelementptr inbounds nuw i8, ptr %60, i64 32
  %62 = load i32, ptr %61, align 8, !tbaa !59
  %.not48 = icmp eq i32 %62, 0
  br i1 %.not48, label %63, label %.thread62.thread

63:                                               ; preds = %59
  %.not49 = icmp eq i32 %.036.ph65.ph, 0
  %.68 = select i1 %.not49, i32 193, i32 192
  br label %.thread62.thread

.thread62.thread:                                 ; preds = %63, %59, %.thread62, %23, %.thread
  %.sink = phi i32 [ %., %.thread ], [ 194, %23 ], [ 194, %.thread62 ], [ 195, %59 ], [ %.68, %63 ]
  tail call fastcc void @emit_sof(ptr noundef nonnull %0, i32 noundef %.sink)
  ret void
}